; Function Attrs: mustprogress uwtable
define dso_local noundef ptr @_ZNK5vcpkg11RegistrySet17registry_for_portENS_10StringViewE(ptr nocapture noundef nonnull readonly align 8 dereferenceable(32) %0, ptr %1, i64 %2) local_unnamed_addr #2 align 2 personality ptr @__gxx_personality_v0 {
  %4 = alloca %"class.std::vector.29", align 8
  call void @_ZNK5vcpkg11RegistrySet19registries_for_portENS_10StringViewE(ptr dead_on_unwind nonnull writable sret(%"class.std::vector.29") align 8 %4, ptr noundef nonnull align 8 dereferenceable(32) %0, ptr %1, i64 %2)
  %5 = load ptr, ptr %4, align 8
  %6 = getelementptr inbounds i8, ptr %4, i64 8
  %7 = load ptr, ptr %6, align 8
  %8 = icmp eq ptr %5, %7
  br i1 %8, label %10, label %.thread

.thread:                                          ; preds = %3
  %9 = load ptr, ptr %5, align 8
  br label %12

10:                                               ; preds = %3
  %11 = load ptr, ptr %0, align 8
  %.not.i.i.i = icmp eq ptr %5, null
  br i1 %.not.i.i.i, label %_ZNSt6vectorIPKN5vcpkg22RegistryImplementationESaIS3_EED2Ev.exit, label %12

12:                                               ; preds = %.thread, %10
  %.06 = phi ptr [ %9, %.thread ], [ %11, %10 ]
  tail call void @_ZdlPv(ptr noundef nonnull %5) #28
  br label %_ZNSt6vectorIPKN5vcpkg22RegistryImplementationESaIS3_EED2Ev.exit

_ZNSt6vectorIPKN5vcpkg22RegistryImplementationESaIS3_EED2Ev.exit: ; preds = %10, %12
  %.07 = phi ptr [ %11, %10 ], [ %.06, %12 ]
  ret ptr %.07
}